(dp0
S'I3D_PLATFORM_IPHONE'
p1
NsS'I3D_OS_IPHONE'
p2
NsS'IW_SDK'
p3
NsS'IW_MKF_FLYMOB_BUILD'
p4
NsS'IW_USE_ASSERTIONS'
p5
NsS'IW_TRACE_CHANNEL_FLYMOB_VERBOSE'
p6
S'2'
p7
sS'IW_PLATFORM_IPHONE'
p8
NsS'__IPHONE_OS_VERSION_MIN_REQUIRED'
p9
S'60000'
p10
sS'S3E_EXT_FLYMOB'
p11
NsS'I3D_ARCH_X86'
p12
NsS'IW_MKF_S3E_DEFAULT'
p13
NsS'IW_ASSERTION_CHANNEL_FLYMOB'
p14
S'1'
p15
sS'IW_MKF_EDK'
p16
NsS'S3E_BUILD_EXT'
p17
NsS'IW_DEBUG'
p18
NsS'IW_USE_TRACING'
p19
NsS'IW_TRACE_CHANNEL_FLYMOB'
p20
g15
s.